target datalayout = "e-m:e-p270:32:32-p271:32:32-p272:64:64-i64:64-i128:128-f80:128-n8:16:32:64-S128"
target triple = "x86_64-pc-linux-gnu"

%struct.png_XYZ = type { i32, i32, i32, i32, i32, i32, i32, i32, i32 }
%struct.png_xy = type { i32, i32, i32, i32, i32, i32, i32, i32 }
%struct.png_struct_def = type { [1 x %struct.__jmp_buf_tag], ptr, ptr, i64, ptr, ptr, ptr, ptr, ptr, ptr, ptr, ptr, i8, i8, i32, i32, i32, i32, %struct.z_stream_s, i32, i32, i32, i32, i64, i32, i32, i32, ptr, ptr, i64, i32, i32, ptr, i16, i32, i16, i8, i8, i8, i8, i8, i8, i8, i8, i8, i8, i8, i8, i8, i8, i16, i8, i32, %struct.png_color_16_struct, %struct.png_color_16_struct, i32, i32, ptr, ptr, ptr, ptr, ptr, ptr, %struct.png_color_8_struct, %struct.png_color_8_struct, ptr, %struct.png_color_16_struct, ptr, ptr, ptr, ptr, ptr, ptr, ptr, ptr, ptr, i32, i32, i64, i64, i64, i64, i32, i32, ptr, ptr, [29 x i8], i32, ptr, ptr, i32, i32, ptr, i8, i8, i16, i16, ptr, i32, i8, ptr, ptr, ptr, ptr, ptr, ptr, ptr, i8, i32, i32, i32, i64, %struct.png_unknown_chunk_t, i64, ptr, i64, i32, i32, ptr, [4 x ptr], %struct.png_colorspace }
%struct.__jmp_buf_tag = type { [8 x i64], i32, %struct.__sigset_t }
%struct.__sigset_t = type { [16 x i64] }
%struct.z_stream_s = type { ptr, i32, i64, ptr, i32, i64, ptr, ptr, ptr, ptr, ptr, i32, i64, i64 }
%struct.png_color_8_struct = type { i8, i8, i8, i8, i8 }
%struct.png_color_16_struct = type { i8, i16, i16, i16, i16 }
%struct.png_unknown_chunk_t = type { [5 x i8], ptr, i64, i8 }
%struct.png_colorspace = type { i32, %struct.png_xy, %struct.png_XYZ, i16, i16 }

@.str.47 = private unnamed_addr constant [42 x i8] c"internal error handling cHRM coefficients\00", align 1
@.str.48 = private unnamed_addr constant [34 x i8] c"internal error handling cHRM->XYZ\00", align 1

; Function Attrs: nounwind uwtable
define hidden i32 @png_muldiv(ptr noundef %0, i32 noundef %1, i32 noundef %2, i32 noundef %3) #0 {
  %5 = alloca i32, align 4
  %6 = alloca ptr, align 8
  %7 = alloca i32, align 4
  %8 = alloca i32, align 4
  %9 = alloca i32, align 4
  %10 = alloca double, align 8
  store ptr %0, ptr %6, align 8
  store i32 %1, ptr %7, align 4
  store i32 %2, ptr %8, align 4
  store i32 %3, ptr %9, align 4
  %11 = load i32, ptr %9, align 4
  %12 = icmp ne i32 %11, 0
  br i1 %12, label %13, label %46

13:                                               ; preds = %4
  %14 = load i32, ptr %7, align 4
  %15 = icmp eq i32 %14, 0
  br i1 %15, label %19, label %16

16:                                               ; preds = %13
  %17 = load i32, ptr %8, align 4
  %18 = icmp eq i32 %17, 0
  br i1 %18, label %19, label %21

19:                                               ; preds = %16, %13
  %20 = load ptr, ptr %6, align 8
  store i32 0, ptr %20, align 4
  store i32 1, ptr %5, align 4
  br label %47

21:                                               ; preds = %16
  %22 = load i32, ptr %7, align 4
  %23 = sitofp i32 %22 to double
  store double %23, ptr %10, align 8
  %24 = load i32, ptr %8, align 4
  %25 = sitofp i32 %24 to double
  %26 = load double, ptr %10, align 8
  %27 = fmul double %26, %25
  store double %27, ptr %10, align 8
  %28 = load i32, ptr %9, align 4
  %29 = sitofp i32 %28 to double
  %30 = load double, ptr %10, align 8
  %31 = fdiv double %30, %29
  store double %31, ptr %10, align 8
  %32 = load double, ptr %10, align 8
  %33 = fadd double %32, 5.000000e-01
  %34 = call double @llvm.floor.f64(double %33)
  store double %34, ptr %10, align 8
  %35 = load double, ptr %10, align 8
  %36 = fcmp ole double %35, 0x41DFFFFFFFC00000
  br i1 %36, label %37, label %44

37:                                               ; preds = %21
  %38 = load double, ptr %10, align 8
  %39 = fcmp oge double %38, 0xC1E0000000000000
  br i1 %39, label %40, label %44

40:                                               ; preds = %37
  %41 = load double, ptr %10, align 8
  %42 = fptosi double %41 to i32
  %43 = load ptr, ptr %6, align 8
  store i32 %42, ptr %43, align 4
  store i32 1, ptr %5, align 4
  br label %47

44:                                               ; preds = %37, %21
  br label %45

45:                                               ; preds = %44
  br label %46

46:                                               ; preds = %45, %4
  store i32 0, ptr %5, align 4
  br label %47

47:                                               ; preds = %46, %40, %19
  %48 = load i32, ptr %5, align 4
  ret i32 %48
}

; Function Attrs: nounwind uwtable
define hidden void @png_colorspace_set_rgb_coefficients(ptr noalias noundef %0) #0 {
  %2 = alloca ptr, align 8
  %3 = alloca i32, align 4
  %4 = alloca i32, align 4
  %5 = alloca i32, align 4
  %6 = alloca i32, align 4
  %7 = alloca i32, align 4
  store ptr %0, ptr %2, align 8
  %8 = load ptr, ptr %2, align 8
  %9 = getelementptr inbounds %struct.png_struct_def, ptr %8, i32 0, i32 94
  %10 = load i8, ptr %9, align 1
  %11 = zext i8 %10 to i32
  %12 = icmp eq i32 %11, 0
  br i1 %12, label %13, label %165

13:                                               ; preds = %1
  %14 = load ptr, ptr %2, align 8
  %15 = getelementptr inbounds %struct.png_struct_def, ptr %14, i32 0, i32 120
  %16 = getelementptr inbounds %struct.png_colorspace, ptr %15, i32 0, i32 4
  %17 = load i16, ptr %16, align 2
  %18 = zext i16 %17 to i32
  %19 = and i32 %18, 2
  %20 = icmp ne i32 %19, 0
  br i1 %20, label %21, label %165

21:                                               ; preds = %13
  %22 = load ptr, ptr %2, align 8
  %23 = getelementptr inbounds %struct.png_struct_def, ptr %22, i32 0, i32 120
  %24 = getelementptr inbounds %struct.png_colorspace, ptr %23, i32 0, i32 2
  %25 = getelementptr inbounds %struct.png_XYZ, ptr %24, i32 0, i32 1
  %26 = load i32, ptr %25, align 4
  store i32 %26, ptr %3, align 4
  %27 = load ptr, ptr %2, align 8
  %28 = getelementptr inbounds %struct.png_struct_def, ptr %27, i32 0, i32 120
  %29 = getelementptr inbounds %struct.png_colorspace, ptr %28, i32 0, i32 2
  %30 = getelementptr inbounds %struct.png_XYZ, ptr %29, i32 0, i32 4
  %31 = load i32, ptr %30, align 4
  store i32 %31, ptr %4, align 4
  %32 = load ptr, ptr %2, align 8
  %33 = getelementptr inbounds %struct.png_struct_def, ptr %32, i32 0, i32 120
  %34 = getelementptr inbounds %struct.png_colorspace, ptr %33, i32 0, i32 2
  %35 = getelementptr inbounds %struct.png_XYZ, ptr %34, i32 0, i32 7
  %36 = load i32, ptr %35, align 4
  store i32 %36, ptr %5, align 4
  %37 = load i32, ptr %3, align 4
  %38 = load i32, ptr %4, align 4
  %39 = add nsw i32 %37, %38
  %40 = load i32, ptr %5, align 4
  %41 = add nsw i32 %39, %40
  store i32 %41, ptr %6, align 4
  %42 = load i32, ptr %6, align 4
  %43 = icmp sgt i32 %42, 0
  br i1 %43, label %44, label %162

44:                                               ; preds = %21
  %45 = load i32, ptr %3, align 4
  %46 = icmp sge i32 %45, 0
  br i1 %46, label %47, label %162

47:                                               ; preds = %44
  %48 = load i32, ptr %3, align 4
  %49 = load i32, ptr %6, align 4
  %50 = call i32 @png_muldiv(ptr noundef %3, i32 noundef %48, i32 noundef 32768, i32 noundef %49)
  %51 = icmp ne i32 %50, 0
  br i1 %51, label %52, label %162

52:                                               ; preds = %47
  %53 = load i32, ptr %3, align 4
  %54 = icmp sge i32 %53, 0
  br i1 %54, label %55, label %162

55:                                               ; preds = %52
  %56 = load i32, ptr %3, align 4
  %57 = icmp sle i32 %56, 32768
  br i1 %57, label %58, label %162

58:                                               ; preds = %55
  %59 = load i32, ptr %4, align 4
  %60 = icmp sge i32 %59, 0
  br i1 %60, label %61, label %162

61:                                               ; preds = %58
  %62 = load i32, ptr %4, align 4
  %63 = load i32, ptr %6, align 4
  %64 = call i32 @png_muldiv(ptr noundef %4, i32 noundef %62, i32 noundef 32768, i32 noundef %63)
  %65 = icmp ne i32 %64, 0
  br i1 %65, label %66, label %162

66:                                               ; preds = %61
  %67 = load i32, ptr %4, align 4
  %68 = icmp sge i32 %67, 0
  br i1 %68, label %69, label %162

69:                                               ; preds = %66
  %70 = load i32, ptr %4, align 4
  %71 = icmp sle i32 %70, 32768
  br i1 %71, label %72, label %162

72:                                               ; preds = %69
  %73 = load i32, ptr %5, align 4
  %74 = icmp sge i32 %73, 0
  br i1 %74, label %75, label %162

75:                                               ; preds = %72
  %76 = load i32, ptr %5, align 4
  %77 = load i32, ptr %6, align 4
  %78 = call i32 @png_muldiv(ptr noundef %5, i32 noundef %76, i32 noundef 32768, i32 noundef %77)
  %79 = icmp ne i32 %78, 0
  br i1 %79, label %80, label %162

80:                                               ; preds = %75
  %81 = load i32, ptr %5, align 4
  %82 = icmp sge i32 %81, 0
  br i1 %82, label %83, label %162

83:                                               ; preds = %80
  %84 = load i32, ptr %5, align 4
  %85 = icmp sle i32 %84, 32768
  br i1 %85, label %86, label %162

86:                                               ; preds = %83
  %87 = load i32, ptr %3, align 4
  %88 = load i32, ptr %4, align 4
  %89 = add nsw i32 %87, %88
  %90 = load i32, ptr %5, align 4
  %91 = add nsw i32 %89, %90
  %92 = icmp sle i32 %91, 32769
  br i1 %92, label %93, label %162

93:                                               ; preds = %86
  store i32 0, ptr %7, align 4
  %94 = load i32, ptr %3, align 4
  %95 = load i32, ptr %4, align 4
  %96 = add nsw i32 %94, %95
  %97 = load i32, ptr %5, align 4
  %98 = add nsw i32 %96, %97
  %99 = icmp sgt i32 %98, 32768
  br i1 %99, label %100, label %101

100:                                              ; preds = %93
  store i32 -1, ptr %7, align 4
  br label %110

101:                                              ; preds = %93
  %102 = load i32, ptr %3, align 4
  %103 = load i32, ptr %4, align 4
  %104 = add nsw i32 %102, %103
  %105 = load i32, ptr %5, align 4
  %106 = add nsw i32 %104, %105
  %107 = icmp slt i32 %106, 32768
  br i1 %107, label %108, label %109

108:                                              ; preds = %101
  store i32 1, ptr %7, align 4
  br label %109

109:                                              ; preds = %108, %101
  br label %110

110:                                              ; preds = %109, %100
  %111 = load i32, ptr %7, align 4
  %112 = icmp ne i32 %111, 0
  br i1 %112, label %113, label %143

113:                                              ; preds = %110
  %114 = load i32, ptr %4, align 4
  %115 = load i32, ptr %3, align 4
  %116 = icmp sge i32 %114, %115
  br i1 %116, label %117, label %125

117:                                              ; preds = %113
  %118 = load i32, ptr %4, align 4
  %119 = load i32, ptr %5, align 4
  %120 = icmp sge i32 %118, %119
  br i1 %120, label %121, label %125

121:                                              ; preds = %117
  %122 = load i32, ptr %7, align 4
  %123 = load i32, ptr %4, align 4
  %124 = add nsw i32 %123, %122
  store i32 %124, ptr %4, align 4
  br label %142

125:                                              ; preds = %117, %113
  %126 = load i32, ptr %3, align 4
  %127 = load i32, ptr %4, align 4
  %128 = icmp sge i32 %126, %127
  br i1 %128, label %129, label %137

129:                                              ; preds = %125
  %130 = load i32, ptr %3, align 4
  %131 = load i32, ptr %5, align 4
  %132 = icmp sge i32 %130, %131
  br i1 %132, label %133, label %137

133:                                              ; preds = %129
  %134 = load i32, ptr %7, align 4
  %135 = load i32, ptr %3, align 4
  %136 = add nsw i32 %135, %134
  store i32 %136, ptr %3, align 4
  br label %141

137:                                              ; preds = %129, %125
  %138 = load i32, ptr %7, align 4
  %139 = load i32, ptr %5, align 4
  %140 = add nsw i32 %139, %138
  store i32 %140, ptr %5, align 4
  br label %141

141:                                              ; preds = %137, %133
  br label %142

142:                                              ; preds = %141, %121
  br label %143

143:                                              ; preds = %142, %110
  %144 = load i32, ptr %3, align 4
  %145 = load i32, ptr %4, align 4
  %146 = add nsw i32 %144, %145
  %147 = load i32, ptr %5, align 4
  %148 = add nsw i32 %146, %147
  %149 = icmp ne i32 %148, 32768
  br i1 %149, label %150, label %152

150:                                              ; preds = %143
  %151 = load ptr, ptr %2, align 8
  call void @png_error(ptr noundef %151, ptr noundef @.str.47) #10
  unreachable

152:                                              ; preds = %143
  %153 = load i32, ptr %3, align 4
  %154 = trunc i32 %153 to i16
  %155 = load ptr, ptr %2, align 8
  %156 = getelementptr inbounds %struct.png_struct_def, ptr %155, i32 0, i32 95
  store i16 %154, ptr %156, align 2
  %157 = load i32, ptr %4, align 4
  %158 = trunc i32 %157 to i16
  %159 = load ptr, ptr %2, align 8
  %160 = getelementptr inbounds %struct.png_struct_def, ptr %159, i32 0, i32 96
  store i16 %158, ptr %160, align 4
  br label %161

161:                                              ; preds = %152
  br label %164

162:                                              ; preds = %86, %83, %80, %75, %72, %69, %66, %61, %58, %55, %52, %47, %44, %21
  %163 = load ptr, ptr %2, align 8
  call void @png_error(ptr noundef %163, ptr noundef @.str.48) #10
  unreachable

164:                                              ; preds = %161
  br label %165

165:                                              ; preds = %164, %13, %1
  ret void
}