; Function Attrs: nounwind uwtable
define hidden void @png_colorspace_set_rgb_coefficients(ptr noalias noundef %0) local_unnamed_addr #0 {
  %2 = getelementptr inbounds i8, ptr %0, i64 865
  %3 = load i8, ptr %2, align 1
  %4 = icmp eq i8 %3, 0
  br i1 %4, label %5, label %86

5:                                                ; preds = %1
  %6 = getelementptr inbounds i8, ptr %0, i64 1146
  %7 = load i16, ptr %6, align 2
  %8 = and i16 %7, 2
  %.not = icmp eq i16 %8, 0
  br i1 %.not, label %86, label %9

9:                                                ; preds = %5
  %10 = getelementptr inbounds i8, ptr %0, i64 1112
  %11 = load i32, ptr %10, align 4
  %12 = getelementptr inbounds i8, ptr %0, i64 1124
  %13 = load i32, ptr %12, align 4
  %14 = getelementptr inbounds i8, ptr %0, i64 1136
  %15 = load i32, ptr %14, align 4
  %16 = add nsw i32 %13, %11
  %17 = add nsw i32 %16, %15
  %18 = icmp sgt i32 %17, 0
  %19 = icmp sgt i32 %11, -1
  %or.cond = and i1 %19, %18
  br i1 %or.cond, label %20, label %png_muldiv.exit.thread

20:                                               ; preds = %9
  %21 = icmp eq i32 %11, 0
  br i1 %21, label %png_muldiv.exit, label %22

22:                                               ; preds = %20
  %23 = uitofp nneg i32 %11 to double
  %24 = fmul double %23, 3.276800e+04
  %25 = uitofp nneg i32 %17 to double
  %26 = fdiv double %24, %25
  %27 = fadd double %26, 5.000000e-01
  %28 = tail call double @llvm.floor.f64(double %27)
  %29 = fcmp ole double %28, 0x41DFFFFFFFC00000
  %30 = fcmp oge double %28, 0xC1E0000000000000
  %or.cond3.i = and i1 %29, %30
  br i1 %or.cond3.i, label %31, label %png_muldiv.exit.thread

31:                                               ; preds = %22
  %32 = fptosi double %28 to i32
  br label %png_muldiv.exit

png_muldiv.exit:                                  ; preds = %20, %31
  %.083 = phi i32 [ %32, %31 ], [ 0, %20 ]
  %33 = icmp ult i32 %.083, 32769
  %34 = icmp sgt i32 %13, -1
  %or.cond7 = and i1 %34, %33
  br i1 %or.cond7, label %35, label %png_muldiv.exit.thread

35:                                               ; preds = %png_muldiv.exit
  %36 = icmp eq i32 %13, 0
  br i1 %36, label %png_muldiv.exit55, label %37

37:                                               ; preds = %35
  %38 = uitofp nneg i32 %13 to double
  %39 = fmul double %38, 3.276800e+04
  %40 = uitofp nneg i32 %17 to double
  %41 = fdiv double %39, %40
  %42 = fadd double %41, 5.000000e-01
  %43 = tail call double @llvm.floor.f64(double %42)
  %44 = fcmp ole double %43, 0x41DFFFFFFFC00000
  %45 = fcmp oge double %43, 0xC1E0000000000000
  %or.cond3.i51 = and i1 %44, %45
  br i1 %or.cond3.i51, label %46, label %png_muldiv.exit.thread

46:                                               ; preds = %37
  %47 = fptosi double %43 to i32
  br label %png_muldiv.exit55

png_muldiv.exit55:                                ; preds = %35, %46
  %.081 = phi i32 [ %47, %46 ], [ 0, %35 ]
  %48 = icmp ult i32 %.081, 32769
  %49 = icmp sgt i32 %15, -1
  %or.cond13 = and i1 %49, %48
  br i1 %or.cond13, label %50, label %png_muldiv.exit.thread

50:                                               ; preds = %png_muldiv.exit55
  %51 = icmp eq i32 %15, 0
  br i1 %51, label %png_muldiv.exit61.thread, label %52

52:                                               ; preds = %50
  %53 = uitofp nneg i32 %15 to double
  %54 = fmul double %53, 3.276800e+04
  %55 = uitofp nneg i32 %17 to double
  %56 = fdiv double %54, %55
  %57 = fadd double %56, 5.000000e-01
  %58 = tail call double @llvm.floor.f64(double %57)
  %59 = fcmp ole double %58, 0x41DFFFFFFFC00000
  %60 = fcmp oge double %58, 0xC1E0000000000000
  %or.cond3.i57 = and i1 %59, %60
  %61 = fptosi double %58 to i32
  %62 = icmp ult i32 %61, 32769
  %or.cond102 = select i1 %or.cond3.i57, i1 %62, i1 false
  br i1 %or.cond102, label %png_muldiv.exit61.thread, label %png_muldiv.exit.thread

png_muldiv.exit61.thread:                         ; preds = %52, %50
  %.080100 = phi i32 [ 0, %50 ], [ %61, %52 ]
  %63 = add nuw nsw i32 %.081, %.083
  %64 = add nuw nsw i32 %63, %.080100
  %65 = icmp ult i32 %64, 32770
  br i1 %65, label %66, label %png_muldiv.exit.thread

66:                                               ; preds = %png_muldiv.exit61.thread
  %67 = icmp eq i32 %64, 32769
  br i1 %67, label %.thread, label %68

68:                                               ; preds = %66
  %69 = icmp ult i32 %64, 32768
  br i1 %69, label %.thread, label %77

.thread:                                          ; preds = %66, %68
  %.098 = phi i32 [ 1, %68 ], [ -1, %66 ]
  %.not42 = icmp ult i32 %.081, %.083
  %.not43 = icmp ult i32 %.081, %.080100
  %or.cond48 = or i1 %.not42, %.not43
  br i1 %or.cond48, label %72, label %70

70:                                               ; preds = %.thread
  %71 = add nsw i32 %.098, %.081
  br label %77

72:                                               ; preds = %.thread
  %.not44 = icmp ult i32 %.083, %.081
  %.not45 = icmp ult i32 %.083, %.080100
  %or.cond49 = or i1 %.not44, %.not45
  br i1 %or.cond49, label %75, label %73

73:                                               ; preds = %72
  %74 = add nsw i32 %.098, %.083
  br label %77

75:                                               ; preds = %72
  %76 = add nsw i32 %.098, %.080100
  br label %77

77:                                               ; preds = %70, %75, %73, %68
  %.184 = phi i32 [ %.083, %68 ], [ %.083, %75 ], [ %74, %73 ], [ %.083, %70 ]
  %.182 = phi i32 [ %.081, %68 ], [ %.081, %75 ], [ %.081, %73 ], [ %71, %70 ]
  %.1 = phi i32 [ %.080100, %68 ], [ %76, %75 ], [ %.080100, %73 ], [ %.080100, %70 ]
  %78 = add nsw i32 %.182, %.184
  %79 = add nsw i32 %78, %.1
  %.not46 = icmp eq i32 %79, 32768
  br i1 %.not46, label %81, label %80

80:                                               ; preds = %77
  tail call void @png_error(ptr noundef nonnull %0, ptr noundef nonnull @.str.47) #27
  unreachable

81:                                               ; preds = %77
  %82 = trunc i32 %.184 to i16
  %83 = getelementptr inbounds i8, ptr %0, i64 866
  store i16 %82, ptr %83, align 2
  %84 = trunc i32 %.182 to i16
  %85 = getelementptr inbounds i8, ptr %0, i64 868
  store i16 %84, ptr %85, align 4
  br label %86

png_muldiv.exit.thread:                           ; preds = %52, %37, %22, %png_muldiv.exit61.thread, %png_muldiv.exit55, %png_muldiv.exit, %9
  tail call void @png_error(ptr noundef nonnull %0, ptr noundef nonnull @.str.48) #27
  unreachable

86:                                               ; preds = %81, %5, %1
  ret void
}